target datalayout = "e-m:e-p270:32:32-p271:32:32-p272:64:64-i64:64-i128:128-f80:128-n8:16:32:64-S128"
target triple = "x86_64-pc-linux-gnu"

@.str.7 = private unnamed_addr constant [35 x i8] c"../openssl/test/bio_memleak_test.c\00", align 1
@.str.8 = private unnamed_addr constant [4 x i8] c"bio\00", align 1
@.str.15 = private unnamed_addr constant [13 x i8] c"Hello World\0A\00", align 1
@.str.18 = private unnamed_addr constant [2 x i8] c"0\00", align 1
@.str.21 = private unnamed_addr constant [23 x i8] c"BIO_read(bio, data, 5)\00", align 1
@.str.22 = private unnamed_addr constant [2 x i8] c"5\00", align 1
@.str.23 = private unnamed_addr constant [5 x i8] c"data\00", align 1
@.str.24 = private unnamed_addr constant [8 x i8] c"\22Hello\22\00", align 1
@.str.25 = private unnamed_addr constant [6 x i8] c"Hello\00", align 1
@.str.26 = private unnamed_addr constant [30 x i8] c"BIO_get_mem_ptr(bio, &bufmem)\00", align 1
@.str.30 = private unnamed_addr constant [2 x i8] c"7\00", align 1
@.str.31 = private unnamed_addr constant [11 x i8] c"\22 World\\n\22\00", align 1
@.str.32 = private unnamed_addr constant [8 x i8] c" World\0A\00", align 1
@.str.34 = private unnamed_addr constant [5 x i8] c"bio2\00", align 1
@.str.35 = private unnamed_addr constant [25 x i8] c"BIO_read(bio2, data, 16)\00", align 1
@.str.36 = private unnamed_addr constant [16 x i8] c"BIO_reset(bio2)\00", align 1

; Function Attrs: nounwind uwtable
define internal i32 @test_bio_rdonly_mem_buf() #0 {
  %1 = alloca i32, align 4
  %2 = alloca ptr, align 8
  %3 = alloca ptr, align 8
  %4 = alloca ptr, align 8
  %5 = alloca [16 x i8], align 16
  call void @llvm.lifetime.start.p0(i64 4, ptr %1) #3
  store i32 0, ptr %1, align 4, !tbaa !4
  call void @llvm.lifetime.start.p0(i64 8, ptr %2) #3
  call void @llvm.lifetime.start.p0(i64 8, ptr %3) #3
  store ptr null, ptr %3, align 8, !tbaa !8
  call void @llvm.lifetime.start.p0(i64 8, ptr %4) #3
  call void @llvm.lifetime.start.p0(i64 16, ptr %5) #3
  %6 = call ptr @BIO_new_mem_buf(ptr noundef @.str.15, i32 noundef 12)
  store ptr %6, ptr %2, align 8, !tbaa !8
  %7 = load ptr, ptr %2, align 8, !tbaa !8
  %8 = call i32 @test_ptr(ptr noundef @.str.7, i32 noundef 114, ptr noundef @.str.8, ptr noundef %7)
  %9 = icmp ne i32 %8, 0
  br i1 %9, label %11, label %10

10:                                               ; preds = %0
  br label %75

11:                                               ; preds = %0
  %12 = load ptr, ptr %2, align 8, !tbaa !8
  %13 = getelementptr inbounds [16 x i8], ptr %5, i64 0, i64 0
  %14 = call i32 @BIO_read(ptr noundef %12, ptr noundef %13, i32 noundef 5)
  %15 = call i32 @test_int_eq(ptr noundef @.str.7, i32 noundef 116, ptr noundef @.str.21, ptr noundef @.str.22, i32 noundef %14, i32 noundef 5)
  %16 = icmp ne i32 %15, 0
  br i1 %16, label %18, label %17

17:                                               ; preds = %11
  br label %75

18:                                               ; preds = %11
  %19 = getelementptr inbounds [16 x i8], ptr %5, i64 0, i64 0
  %20 = call i32 @test_mem_eq(ptr noundef @.str.7, i32 noundef 118, ptr noundef @.str.23, ptr noundef @.str.24, ptr noundef %19, i64 noundef 5, ptr noundef @.str.25, i64 noundef 5)
  %21 = icmp ne i32 %20, 0
  br i1 %21, label %23, label %22

22:                                               ; preds = %18
  br label %75

23:                                               ; preds = %18
  %24 = load ptr, ptr %2, align 8, !tbaa !8
  %25 = call i64 @BIO_ctrl(ptr noundef %24, i32 noundef 115, i64 noundef 0, ptr noundef %4)
  %26 = trunc i64 %25 to i32
  %27 = call i32 @test_int_gt(ptr noundef @.str.7, i32 noundef 120, ptr noundef @.str.26, ptr noundef @.str.18, i32 noundef %26, i32 noundef 0)
  %28 = icmp ne i32 %27, 0
  br i1 %28, label %30, label %29

29:                                               ; preds = %23
  br label %75

30:                                               ; preds = %23
  %31 = load ptr, ptr %2, align 8, !tbaa !8
  %32 = call i64 @BIO_ctrl(ptr noundef %31, i32 noundef 9, i64 noundef 0, ptr noundef null)
  %33 = call ptr @BIO_s_mem()
  %34 = call ptr @BIO_new(ptr noundef %33)
  store ptr %34, ptr %3, align 8, !tbaa !8
  %35 = load ptr, ptr %3, align 8, !tbaa !8
  %36 = call i32 @test_ptr(ptr noundef @.str.7, i32 noundef 125, ptr noundef @.str.34, ptr noundef %35)
  %37 = icmp ne i32 %36, 0
  br i1 %37, label %39, label %38

38:                                               ; preds = %30
  br label %75

39:                                               ; preds = %30
  %40 = load ptr, ptr %3, align 8, !tbaa !8
  %41 = load ptr, ptr %4, align 8, !tbaa !17
  %42 = call i64 @BIO_ctrl(ptr noundef %40, i32 noundef 114, i64 noundef 1, ptr noundef %41)
  %43 = load ptr, ptr %3, align 8, !tbaa !8
  call void @BIO_set_flags(ptr noundef %43, i32 noundef 512)
  %44 = load ptr, ptr %3, align 8, !tbaa !8
  %45 = getelementptr inbounds [16 x i8], ptr %5, i64 0, i64 0
  %46 = call i32 @BIO_read(ptr noundef %44, ptr noundef %45, i32 noundef 16)
  %47 = call i32 @test_int_eq(ptr noundef @.str.7, i32 noundef 130, ptr noundef @.str.35, ptr noundef @.str.30, i32 noundef %46, i32 noundef 7)
  %48 = icmp ne i32 %47, 0
  br i1 %48, label %50, label %49

49:                                               ; preds = %39
  br label %75

50:                                               ; preds = %39
  %51 = getelementptr inbounds [16 x i8], ptr %5, i64 0, i64 0
  %52 = call i32 @test_mem_eq(ptr noundef @.str.7, i32 noundef 132, ptr noundef @.str.23, ptr noundef @.str.31, ptr noundef %51, i64 noundef 7, ptr noundef @.str.32, i64 noundef 7)
  %53 = icmp ne i32 %52, 0
  br i1 %53, label %55, label %54

54:                                               ; preds = %50
  br label %75

55:                                               ; preds = %50
  %56 = load ptr, ptr %3, align 8, !tbaa !8
  %57 = call i64 @BIO_ctrl(ptr noundef %56, i32 noundef 1, i64 noundef 0, ptr noundef null)
  %58 = trunc i64 %57 to i32
  %59 = call i32 @test_int_gt(ptr noundef @.str.7, i32 noundef 134, ptr noundef @.str.36, ptr noundef @.str.18, i32 noundef %58, i32 noundef 0)
  %60 = icmp ne i32 %59, 0
  br i1 %60, label %62, label %61

61:                                               ; preds = %55
  br label %75

62:                                               ; preds = %55
  %63 = load ptr, ptr %3, align 8, !tbaa !8
  %64 = getelementptr inbounds [16 x i8], ptr %5, i64 0, i64 0
  %65 = call i32 @BIO_read(ptr noundef %63, ptr noundef %64, i32 noundef 16)
  %66 = call i32 @test_int_eq(ptr noundef @.str.7, i32 noundef 136, ptr noundef @.str.35, ptr noundef @.str.30, i32 noundef %65, i32 noundef 7)
  %67 = icmp ne i32 %66, 0
  br i1 %67, label %69, label %68

68:                                               ; preds = %62
  br label %75

69:                                               ; preds = %62
  %70 = getelementptr inbounds [16 x i8], ptr %5, i64 0, i64 0
  %71 = call i32 @test_mem_eq(ptr noundef @.str.7, i32 noundef 138, ptr noundef @.str.23, ptr noundef @.str.31, ptr noundef %70, i64 noundef 7, ptr noundef @.str.32, i64 noundef 7)
  %72 = icmp ne i32 %71, 0
  br i1 %72, label %74, label %73

73:                                               ; preds = %69
  br label %75

74:                                               ; preds = %69
  store i32 1, ptr %1, align 4, !tbaa !4
  br label %75

75:                                               ; preds = %74, %73, %68, %61, %54, %49, %38, %29, %22, %17, %10
  %76 = load ptr, ptr %2, align 8, !tbaa !8
  %77 = call i32 @BIO_free(ptr noundef %76)
  %78 = load ptr, ptr %3, align 8, !tbaa !8
  %79 = call i32 @BIO_free(ptr noundef %78)
  %80 = load i32, ptr %1, align 4, !tbaa !4
  call void @llvm.lifetime.end.p0(i64 16, ptr %5) #3
  call void @llvm.lifetime.end.p0(i64 8, ptr %4) #3
  call void @llvm.lifetime.end.p0(i64 8, ptr %3) #3
  call void @llvm.lifetime.end.p0(i64 8, ptr %2) #3
  call void @llvm.lifetime.end.p0(i64 4, ptr %1) #3
  ret i32 %80
}