; Function Attrs: nounwind uwtable
define internal range(i32 0, 2) i32 @test_bio_rdonly_mem_buf() #0 {
  %1 = alloca ptr, align 8
  %2 = alloca [16 x i8], align 16
  call void @llvm.lifetime.start.p0(i64 8, ptr nonnull %1) #4
  call void @llvm.lifetime.start.p0(i64 16, ptr nonnull %2) #4
  %3 = tail call ptr @BIO_new_mem_buf(ptr noundef nonnull @.str.15, i32 noundef 12) #4
  %4 = tail call i32 @test_ptr(ptr noundef nonnull @.str.7, i32 noundef 114, ptr noundef nonnull @.str.8, ptr noundef %3) #4
  %.not = icmp eq i32 %4, 0
  br i1 %.not, label %35, label %5

5:                                                ; preds = %0
  %6 = call i32 @BIO_read(ptr noundef %3, ptr noundef nonnull %2, i32 noundef 5) #4
  %7 = call i32 @test_int_eq(ptr noundef nonnull @.str.7, i32 noundef 116, ptr noundef nonnull @.str.21, ptr noundef nonnull @.str.22, i32 noundef %6, i32 noundef 5) #4
  %.not13 = icmp eq i32 %7, 0
  br i1 %.not13, label %35, label %8

8:                                                ; preds = %5
  %9 = call i32 @test_mem_eq(ptr noundef nonnull @.str.7, i32 noundef 118, ptr noundef nonnull @.str.23, ptr noundef nonnull @.str.24, ptr noundef nonnull %2, i64 noundef 5, ptr noundef nonnull @.str.25, i64 noundef 5) #4
  %.not14 = icmp eq i32 %9, 0
  br i1 %.not14, label %35, label %10

10:                                               ; preds = %8
  %11 = call i64 @BIO_ctrl(ptr noundef %3, i32 noundef 115, i64 noundef 0, ptr noundef nonnull %1) #4
  %12 = trunc i64 %11 to i32
  %13 = call i32 @test_int_gt(ptr noundef nonnull @.str.7, i32 noundef 120, ptr noundef nonnull @.str.26, ptr noundef nonnull @.str.18, i32 noundef %12, i32 noundef 0) #4
  %.not15 = icmp eq i32 %13, 0
  br i1 %.not15, label %35, label %14

14:                                               ; preds = %10
  %15 = call i64 @BIO_ctrl(ptr noundef %3, i32 noundef 9, i64 noundef 0, ptr noundef null) #4
  %16 = call ptr @BIO_s_mem() #4
  %17 = call ptr @BIO_new(ptr noundef %16) #4
  %18 = call i32 @test_ptr(ptr noundef nonnull @.str.7, i32 noundef 125, ptr noundef nonnull @.str.34, ptr noundef %17) #4
  %.not16 = icmp eq i32 %18, 0
  br i1 %.not16, label %35, label %19

19:                                               ; preds = %14
  %20 = load ptr, ptr %1, align 8, !tbaa !13
  %21 = call i64 @BIO_ctrl(ptr noundef %17, i32 noundef 114, i64 noundef 1, ptr noundef %20) #4
  call void @BIO_set_flags(ptr noundef %17, i32 noundef 512) #4
  %22 = call i32 @BIO_read(ptr noundef %17, ptr noundef nonnull %2, i32 noundef 16) #4
  %23 = call i32 @test_int_eq(ptr noundef nonnull @.str.7, i32 noundef 130, ptr noundef nonnull @.str.35, ptr noundef nonnull @.str.30, i32 noundef %22, i32 noundef 7) #4
  %.not17 = icmp eq i32 %23, 0
  br i1 %.not17, label %35, label %24

24:                                               ; preds = %19
  %25 = call i32 @test_mem_eq(ptr noundef nonnull @.str.7, i32 noundef 132, ptr noundef nonnull @.str.23, ptr noundef nonnull @.str.31, ptr noundef nonnull %2, i64 noundef 7, ptr noundef nonnull @.str.32, i64 noundef 7) #4
  %.not18 = icmp eq i32 %25, 0
  br i1 %.not18, label %35, label %26

26:                                               ; preds = %24
  %27 = call i64 @BIO_ctrl(ptr noundef %17, i32 noundef 1, i64 noundef 0, ptr noundef null) #4
  %28 = trunc i64 %27 to i32
  %29 = call i32 @test_int_gt(ptr noundef nonnull @.str.7, i32 noundef 134, ptr noundef nonnull @.str.36, ptr noundef nonnull @.str.18, i32 noundef %28, i32 noundef 0) #4
  %.not19 = icmp eq i32 %29, 0
  br i1 %.not19, label %35, label %30

30:                                               ; preds = %26
  %31 = call i32 @BIO_read(ptr noundef %17, ptr noundef nonnull %2, i32 noundef 16) #4
  %32 = call i32 @test_int_eq(ptr noundef nonnull @.str.7, i32 noundef 136, ptr noundef nonnull @.str.35, ptr noundef nonnull @.str.30, i32 noundef %31, i32 noundef 7) #4
  %.not20 = icmp eq i32 %32, 0
  br i1 %.not20, label %35, label %33

33:                                               ; preds = %30
  %34 = call i32 @test_mem_eq(ptr noundef nonnull @.str.7, i32 noundef 138, ptr noundef nonnull @.str.23, ptr noundef nonnull @.str.31, ptr noundef nonnull %2, i64 noundef 7, ptr noundef nonnull @.str.32, i64 noundef 7) #4
  %.not21 = icmp ne i32 %34, 0
  %spec.select = zext i1 %.not21 to i32
  br label %35

35:                                               ; preds = %33, %30, %26, %24, %19, %14, %10, %8, %5, %0
  %.012 = phi i32 [ 0, %30 ], [ 0, %26 ], [ 0, %24 ], [ 0, %19 ], [ 0, %14 ], [ 0, %10 ], [ 0, %8 ], [ 0, %5 ], [ 0, %0 ], [ %spec.select, %33 ]
  %.0 = phi ptr [ %17, %30 ], [ %17, %26 ], [ %17, %24 ], [ %17, %19 ], [ %17, %14 ], [ null, %10 ], [ null, %8 ], [ null, %5 ], [ null, %0 ], [ %17, %33 ]
  %36 = call i32 @BIO_free(ptr noundef %3) #4
  %37 = call i32 @BIO_free(ptr noundef %.0) #4
  call void @llvm.lifetime.end.p0(i64 16, ptr nonnull %2) #4
  call void @llvm.lifetime.end.p0(i64 8, ptr nonnull %1) #4
  ret i32 %.012
}